; ModuleID = '39/1270.c'
source_filename = "39/1270.c"
target datalayout = "e-m:e-p270:32:32-p271:32:32-p272:64:64-i64:64-f80:128-n8:16:32:64-S128"
target triple = "x86_64-pc-linux-gnu"

%struct.student = type { [30 x i8], i32, i32, i8, i8, i32, i32 }

@.str = private unnamed_addr constant [3 x i8] c"%d\00", align 1
@.str.1 = private unnamed_addr constant [15 x i8] c"%s%d%d %c %c%d\00", align 1
@.str.2 = private unnamed_addr constant [9 x i8] c"%s\0A%d\0A%d\00", align 1

; Function Attrs: noinline nounwind uwtable
define dso_local void @main() #0 {
  %1 = alloca [100 x %struct.student], align 16
  %2 = alloca %struct.student*, align 8
  %3 = alloca i32, align 4
  %4 = alloca i32, align 4
  %5 = alloca i32, align 4
  %6 = alloca i32, align 4
  %7 = alloca i32, align 4
  %8 = getelementptr inbounds [100 x %struct.student], [100 x %struct.student]* %1, i64 0, i64 0
  store %struct.student* %8, %struct.student** %2, align 8
  store i32 0, i32* %5, align 4
  store i32 0, i32* %7, align 4
  %9 = call i32 (i8*, ...) @__isoc99_scanf(i8* getelementptr inbounds ([3 x i8], [3 x i8]* @.str, i64 0, i64 0), i32* %4)
  store i32 0, i32* %3, align 4
  br label %10

10:                                               ; preds = %117, %0
  %11 = load i32, i32* %3, align 4
  %12 = load i32, i32* %4, align 4
  %13 = icmp slt i32 %11, %12
  br i1 %13, label %14, label %122

14:                                               ; preds = %10
  %15 = load %struct.student*, %struct.student** %2, align 8
  %16 = getelementptr inbounds %struct.student, %struct.student* %15, i32 0, i32 0
  %17 = load %struct.student*, %struct.student** %2, align 8
  %18 = getelementptr inbounds %struct.student, %struct.student* %17, i32 0, i32 1
  %19 = load %struct.student*, %struct.student** %2, align 8
  %20 = getelementptr inbounds %struct.student, %struct.student* %19, i32 0, i32 2
  %21 = load %struct.student*, %struct.student** %2, align 8
  %22 = getelementptr inbounds %struct.student, %struct.student* %21, i32 0, i32 3
  %23 = load %struct.student*, %struct.student** %2, align 8
  %24 = getelementptr inbounds %struct.student, %struct.student* %23, i32 0, i32 4
  %25 = load %struct.student*, %struct.student** %2, align 8
  %26 = getelementptr inbounds %struct.student, %struct.student* %25, i32 0, i32 5
  %27 = call i32 (i8*, ...) @__isoc99_scanf(i8* getelementptr inbounds ([15 x i8], [15 x i8]* @.str.1, i64 0, i64 0), [30 x i8]* %16, i32* %18, i32* %20, i8* %22, i8* %24, i32* %26)
  %28 = load %struct.student*, %struct.student** %2, align 8
  %29 = getelementptr inbounds %struct.student, %struct.student* %28, i32 0, i32 6
  store i32 0, i32* %29, align 4
  %30 = load %struct.student*, %struct.student** %2, align 8
  %31 = getelementptr inbounds %struct.student, %struct.student* %30, i32 0, i32 1
  %32 = load i32, i32* %31, align 4
  %33 = icmp sgt i32 %32, 80
  br i1 %33, label %34, label %46

34:                                               ; preds = %14
  %35 = load %struct.student*, %struct.student** %2, align 8
  %36 = getelementptr inbounds %struct.student, %struct.student* %35, i32 0, i32 5
  %37 = load i32, i32* %36, align 4
  %38 = icmp sge i32 %37, 1
  br i1 %38, label %39, label %46

39:                                               ; preds = %34
  %40 = load %struct.student*, %struct.student** %2, align 8
  %41 = getelementptr inbounds %struct.student, %struct.student* %40, i32 0, i32 6
  %42 = load i32, i32* %41, align 4
  %43 = add nsw i32 %42, 8000
  %44 = load %struct.student*, %struct.student** %2, align 8
  %45 = getelementptr inbounds %struct.student, %struct.student* %44, i32 0, i32 6
  store i32 %43, i32* %45, align 4
  br label %46

46:                                               ; preds = %39, %34, %14
  %47 = load %struct.student*, %struct.student** %2, align 8
  %48 = getelementptr inbounds %struct.student, %struct.student* %47, i32 0, i32 1
  %49 = load i32, i32* %48, align 4
  %50 = icmp sgt i32 %49, 85
  br i1 %50, label %51, label %63

51:                                               ; preds = %46
  %52 = load %struct.student*, %struct.student** %2, align 8
  %53 = getelementptr inbounds %struct.student, %struct.student* %52, i32 0, i32 2
  %54 = load i32, i32* %53, align 4
  %55 = icmp sgt i32 %54, 80
  br i1 %55, label %56, label %63

56:                                               ; preds = %51
  %57 = load %struct.student*, %struct.student** %2, align 8
  %58 = getelementptr inbounds %struct.student, %struct.student* %57, i32 0, i32 6
  %59 = load i32, i32* %58, align 4
  %60 = add nsw i32 %59, 4000
  %61 = load %struct.student*, %struct.student** %2, align 8
  %62 = getelementptr inbounds %struct.student, %struct.student* %61, i32 0, i32 6
  store i32 %60, i32* %62, align 4
  br label %63

63:                                               ; preds = %56, %51, %46
  %64 = load %struct.student*, %struct.student** %2, align 8
  %65 = getelementptr inbounds %struct.student, %struct.student* %64, i32 0, i32 1
  %66 = load i32, i32* %65, align 4
  %67 = icmp sgt i32 %66, 90
  br i1 %67, label %68, label %75

68:                                               ; preds = %63
  %69 = load %struct.student*, %struct.student** %2, align 8
  %70 = getelementptr inbounds %struct.student, %struct.student* %69, i32 0, i32 6
  %71 = load i32, i32* %70, align 4
  %72 = add nsw i32 %71, 2000
  %73 = load %struct.student*, %struct.student** %2, align 8
  %74 = getelementptr inbounds %struct.student, %struct.student* %73, i32 0, i32 6
  store i32 %72, i32* %74, align 4
  br label %75

75:                                               ; preds = %68, %63
  %76 = load %struct.student*, %struct.student** %2, align 8
  %77 = getelementptr inbounds %struct.student, %struct.student* %76, i32 0, i32 1
  %78 = load i32, i32* %77, align 4
  %79 = icmp sgt i32 %78, 85
  br i1 %79, label %80, label %93

80:                                               ; preds = %75
  %81 = load %struct.student*, %struct.student** %2, align 8
  %82 = getelementptr inbounds %struct.student, %struct.student* %81, i32 0, i32 4
  %83 = load i8, i8* %82, align 1
  %84 = sext i8 %83 to i32
  %85 = icmp eq i32 %84, 89
  br i1 %85, label %86, label %93

86:                                               ; preds = %80
  %87 = load %struct.student*, %struct.student** %2, align 8
  %88 = getelementptr inbounds %struct.student, %struct.student* %87, i32 0, i32 6
  %89 = load i32, i32* %88, align 4
  %90 = add nsw i32 %89, 1000
  %91 = load %struct.student*, %struct.student** %2, align 8
  %92 = getelementptr inbounds %struct.student, %struct.student* %91, i32 0, i32 6
  store i32 %90, i32* %92, align 4
  br label %93

93:                                               ; preds = %86, %80, %75
  %94 = load %struct.student*, %struct.student** %2, align 8
  %95 = getelementptr inbounds %struct.student, %struct.student* %94, i32 0, i32 3
  %96 = load i8, i8* %95, align 4
  %97 = sext i8 %96 to i32
  %98 = icmp eq i32 %97, 89
  br i1 %98, label %99, label %111

99:                                               ; preds = %93
  %100 = load %struct.student*, %struct.student** %2, align 8
  %101 = getelementptr inbounds %struct.student, %struct.student* %100, i32 0, i32 2
  %102 = load i32, i32* %101, align 4
  %103 = icmp sgt i32 %102, 80
  br i1 %103, label %104, label %111

104:                                              ; preds = %99
  %105 = load %struct.student*, %struct.student** %2, align 8
  %106 = getelementptr inbounds %struct.student, %struct.student* %105, i32 0, i32 6
  %107 = load i32, i32* %106, align 4
  %108 = add nsw i32 %107, 850
  %109 = load %struct.student*, %struct.student** %2, align 8
  %110 = getelementptr inbounds %struct.student, %struct.student* %109, i32 0, i32 6
  store i32 %108, i32* %110, align 4
  br label %111

111:                                              ; preds = %104, %99, %93
  %112 = load i32, i32* %5, align 4
  %113 = load %struct.student*, %struct.student** %2, align 8
  %114 = getelementptr inbounds %struct.student, %struct.student* %113, i32 0, i32 6
  %115 = load i32, i32* %114, align 4
  %116 = add nsw i32 %112, %115
  store i32 %116, i32* %5, align 4
  br label %117

117:                                              ; preds = %111
  %118 = load i32, i32* %3, align 4
  %119 = add nsw i32 %118, 1
  store i32 %119, i32* %3, align 4
  %120 = load %struct.student*, %struct.student** %2, align 8
  %121 = getelementptr inbounds %struct.student, %struct.student* %120, i32 1
  store %struct.student* %121, %struct.student** %2, align 8
  br label %10

122:                                              ; preds = %10
  %123 = getelementptr inbounds [100 x %struct.student], [100 x %struct.student]* %1, i64 0, i64 0
  store %struct.student* %123, %struct.student** %2, align 8
  store i32 0, i32* %3, align 4
  br label %124

124:                                              ; preds = %141, %122
  %125 = load i32, i32* %3, align 4
  %126 = load i32, i32* %4, align 4
  %127 = sub nsw i32 %126, 1
  %128 = icmp slt i32 %125, %127
  br i1 %128, label %129, label %146

129:                                              ; preds = %124
  %130 = load %struct.student*, %struct.student** %2, align 8
  %131 = getelementptr inbounds %struct.student, %struct.student* %130, i32 0, i32 6
  %132 = load i32, i32* %131, align 4
  %133 = load i32, i32* %7, align 4
  %134 = icmp sgt i32 %132, %133
  br i1 %134, label %135, label %140

135:                                              ; preds = %129
  %136 = load %struct.student*, %struct.student** %2, align 8
  %137 = getelementptr inbounds %struct.student, %struct.student* %136, i32 0, i32 6
  %138 = load i32, i32* %137, align 4
  store i32 %138, i32* %7, align 4
  %139 = load i32, i32* %3, align 4
  store i32 %139, i32* %6, align 4
  br label %140

140:                                              ; preds = %135, %129
  br label %141

141:                                              ; preds = %140
  %142 = load i32, i32* %3, align 4
  %143 = add nsw i32 %142, 1
  store i32 %143, i32* %3, align 4
  %144 = load %struct.student*, %struct.student** %2, align 8
  %145 = getelementptr inbounds %struct.student, %struct.student* %144, i32 1
  store %struct.student* %145, %struct.student** %2, align 8
  br label %124

146:                                              ; preds = %124
  %147 = load i32, i32* %6, align 4
  %148 = sext i32 %147 to i64
  %149 = getelementptr inbounds [100 x %struct.student], [100 x %struct.student]* %1, i64 0, i64 %148
  %150 = getelementptr inbounds %struct.student, %struct.student* %149, i32 0, i32 0
  %151 = getelementptr inbounds [30 x i8], [30 x i8]* %150, i64 0, i64 0
  %152 = load i32, i32* %7, align 4
  %153 = load i32, i32* %5, align 4
  %154 = call i32 (i8*, ...) @printf(i8* getelementptr inbounds ([9 x i8], [9 x i8]* @.str.2, i64 0, i64 0), i8* %151, i32 %152, i32 %153)
  ret void
}

declare dso_local i32 @__isoc99_scanf(i8*, ...) #1

declare dso_local i32 @printf(i8*, ...) #1


!llvm.module.flags = !{!0}
!llvm.ident = !{!1}

!0 = !{i32 1, !"wchar_size", i32 4}
!1 = !{!"clang version 10.0.0-4ubuntu1 "}
